; Function Attrs: mustprogress nounwind uwtable
define hidden void @_ZN27ShenandoahMonitoringSupport19notify_heap_changedEv(ptr noundef nonnull align 8 dereferenceable(336) %0) local_unnamed_addr #0 align 2 {
  %2 = getelementptr inbounds i8, ptr %0, i64 128
  %3 = load volatile i8, ptr %2, align 8
  tail call void asm sideeffect "", "~{memory},~{dirflag},~{fpsr},~{flags}"() #6, !srcloc !7
  %4 = icmp eq i8 %3, 0
  br i1 %4, label %5, label %_ZN36ShenandoahPeriodicCountersUpdateTask19notify_heap_changedEv.exit

5:                                                ; preds = %1
  %6 = tail call i8 asm sideeffect "xchgb ($2),$0", "=q,0,r,~{memory},~{dirflag},~{fpsr},~{flags}"(i8 1, ptr nonnull %2) #6, !srcloc !6
  br label %_ZN36ShenandoahPeriodicCountersUpdateTask19notify_heap_changedEv.exit

_ZN36ShenandoahPeriodicCountersUpdateTask19notify_heap_changedEv.exit: ; preds = %1, %5
  ret void
}